; Function Attrs: mustprogress uwtable
define hidden void @_ZN3fmt3v114fileC2ENS0_18basic_cstring_viewIcEEi(ptr noundef nonnull writeonly align 4 captures(none) dereferenceable(4) initializes((0, 4)) %0, ptr %1, i32 noundef %2) unnamed_addr #5 align 2 personality ptr @__gxx_personality_v0 {
  %4 = alloca ptr, align 8
  br label %5

5:                                                ; preds = %8, %3
  %6 = tail call i32 (ptr, i32, ...) @open(ptr noundef %1, i32 noundef %2, i32 noundef 438)
  store i32 %6, ptr %0, align 4, !tbaa !34
  %7 = icmp eq i32 %6, -1
  br i1 %7, label %8, label %.critedge

8:                                                ; preds = %5
  %9 = tail call ptr @__errno_location() #31
  %10 = load i32, ptr %9, align 4, !tbaa !10
  %11 = icmp eq i32 %10, 4
  br i1 %11, label %5, label %12, !llvm.loop !36

12:                                               ; preds = %8
  %13 = tail call ptr @__cxa_allocate_exception(i64 32) #32
  %14 = load i32, ptr %9, align 4, !tbaa !10
  call void @llvm.lifetime.start.p0(i64 8, ptr nonnull %4) #32
  store ptr %1, ptr %4, align 8, !tbaa !22
  invoke void @_ZN3fmt3v1112system_errorIJPKcEEESt12system_erroriNS0_7fstringIJDpT_EE1tEDpOS6_(ptr dead_on_unwind writable sret(%"class.std::system_error") align 8 %13, i32 noundef %14, ptr nonnull @.str.46, i64 19, ptr noundef nonnull align 8 dereferenceable(8) %4)
          to label %15 unwind label %16

15:                                               ; preds = %12
  call void @__cxa_throw(ptr %13, ptr nonnull @_ZTISt12system_error, ptr nonnull @_ZNSt12system_errorD1Ev) #35
  unreachable

16:                                               ; preds = %12
  %17 = landingpad { ptr, i32 }
          cleanup
  call void @llvm.lifetime.end.p0(i64 8, ptr nonnull %4) #32
  call void @__cxa_free_exception(ptr %13) #32
  resume { ptr, i32 } %17

.critedge:                                        ; preds = %5
  ret void
}